
build/atomics_test_1-O0:     file format elf64-littleriscv


Disassembly of section .text:

000000000001010c <main>:
   1010c:	fa010113          	addi	sp,sp,-96
   10110:	04813c23          	sd	s0,88(sp)
   10114:	06010413          	addi	s0,sp,96
   10118:	000117b7          	lui	a5,0x11
   1011c:	00b00713          	li	a4,11
   10120:	28e7a623          	sw	a4,652(a5) # 1128c <_edata>
   10124:	000117b7          	lui	a5,0x11
   10128:	28878793          	addi	a5,a5,648 # 11288 <x>
   1012c:	fef43423          	sd	a5,-24(s0)
   10130:	fe843783          	ld	a5,-24(s0)
   10134:	0007a783          	lw	a5,0(a5)
   10138:	0007879b          	sext.w	a5,a5
   1013c:	0007879b          	sext.w	a5,a5
   10140:	faf42e23          	sw	a5,-68(s0)
   10144:	fbc42703          	lw	a4,-68(s0)
   10148:	000117b7          	lui	a5,0x11
   1014c:	28e7a823          	sw	a4,656(a5) # 11290 <y_relaxed>
   10150:	000117b7          	lui	a5,0x11
   10154:	00c00713          	li	a4,12
   10158:	28e7a623          	sw	a4,652(a5) # 1128c <_edata>
   1015c:	000117b7          	lui	a5,0x11
   10160:	28878793          	addi	a5,a5,648 # 11288 <x>
   10164:	fef43023          	sd	a5,-32(s0)
   10168:	fe043783          	ld	a5,-32(s0)
   1016c:	0007a783          	lw	a5,0(a5)
   10170:	0ff0000f          	fence
   10174:	0007879b          	sext.w	a5,a5
   10178:	0007879b          	sext.w	a5,a5
   1017c:	faf42c23          	sw	a5,-72(s0)
   10180:	fb842703          	lw	a4,-72(s0)
   10184:	80e1a823          	sw	a4,-2032(gp) # 11298 <y_acquire>
   10188:	000117b7          	lui	a5,0x11
   1018c:	00d00713          	li	a4,13
   10190:	28e7a623          	sw	a4,652(a5) # 1128c <_edata>
   10194:	000117b7          	lui	a5,0x11
   10198:	28878793          	addi	a5,a5,648 # 11288 <x>
   1019c:	fcf43c23          	sd	a5,-40(s0)
   101a0:	fd843783          	ld	a5,-40(s0)
   101a4:	0ff0000f          	fence
   101a8:	0007a783          	lw	a5,0(a5)
   101ac:	0ff0000f          	fence
   101b0:	0007879b          	sext.w	a5,a5
   101b4:	0007879b          	sext.w	a5,a5
   101b8:	faf42a23          	sw	a5,-76(s0)
   101bc:	fb442703          	lw	a4,-76(s0)
   101c0:	80e1a623          	sw	a4,-2036(gp) # 11294 <y_sc>
   101c4:	000117b7          	lui	a5,0x11
   101c8:	01500713          	li	a4,21
   101cc:	28e7a623          	sw	a4,652(a5) # 1128c <_edata>
   101d0:	000117b7          	lui	a5,0x11
   101d4:	28878793          	addi	a5,a5,648 # 11288 <x>
   101d8:	fcf43823          	sd	a5,-48(s0)
   101dc:	00200793          	li	a5,2
   101e0:	faf42823          	sw	a5,-80(s0)
   101e4:	fb042783          	lw	a5,-80(s0)
   101e8:	0007871b          	sext.w	a4,a5
   101ec:	fd043783          	ld	a5,-48(s0)
   101f0:	08e7a02f          	amoswap.w	zero,a4,(a5)
   101f4:	000117b7          	lui	a5,0x11
   101f8:	01600713          	li	a4,22
   101fc:	28e7a623          	sw	a4,652(a5) # 1128c <_edata>
   10200:	000117b7          	lui	a5,0x11
   10204:	28878793          	addi	a5,a5,648 # 11288 <x>
   10208:	fcf43423          	sd	a5,-56(s0)
   1020c:	00300793          	li	a5,3
   10210:	faf42623          	sw	a5,-84(s0)
   10214:	fac42783          	lw	a5,-84(s0)
   10218:	0007871b          	sext.w	a4,a5
   1021c:	fc843783          	ld	a5,-56(s0)
   10220:	0f50000f          	fence	iorw,ow
   10224:	08e7a02f          	amoswap.w	zero,a4,(a5)
   10228:	000117b7          	lui	a5,0x11
   1022c:	01700713          	li	a4,23
   10230:	28e7a623          	sw	a4,652(a5) # 1128c <_edata>
   10234:	000117b7          	lui	a5,0x11
   10238:	28878793          	addi	a5,a5,648 # 11288 <x>
   1023c:	fcf43023          	sd	a5,-64(s0)
   10240:	00300793          	li	a5,3
   10244:	faf42423          	sw	a5,-88(s0)
   10248:	fa842783          	lw	a5,-88(s0)
   1024c:	0007871b          	sext.w	a4,a5
   10250:	fc043783          	ld	a5,-64(s0)
   10254:	0f50000f          	fence	iorw,ow
   10258:	0ce7a02f          	amoswap.w.aq	zero,a4,(a5)
   1025c:	000117b7          	lui	a5,0x11
   10260:	01f00713          	li	a4,31
   10264:	28e7a623          	sw	a4,652(a5) # 1128c <_edata>
   10268:	000117b7          	lui	a5,0x11
   1026c:	06300713          	li	a4,99
   10270:	28e7a623          	sw	a4,652(a5) # 1128c <_edata>
   10274:	00100793          	li	a5,1
   10278:	00078513          	mv	a0,a5
   1027c:	05813403          	ld	s0,88(sp)
   10280:	06010113          	addi	sp,sp,96
   10284:	00008067          	ret
