
build/atomics_test_1-O2:     file format elf64-littleriscv


Disassembly of section .text:

000000000001010c <main>:
   1010c:	000117b7          	lui	a5,0x11
   10110:	00b00713          	li	a4,11
   10114:	18e7ae23          	sw	a4,412(a5) # 1119c <_edata>
   10118:	00011737          	lui	a4,0x11
   1011c:	19872603          	lw	a2,408(a4) # 11198 <x>
   10120:	000116b7          	lui	a3,0x11
   10124:	1ac6a023          	sw	a2,416(a3) # 111a0 <y_relaxed>
   10128:	00c00693          	li	a3,12
   1012c:	18d7ae23          	sw	a3,412(a5)
   10130:	19872603          	lw	a2,408(a4)
   10134:	0ff0000f          	fence
   10138:	80c1a823          	sw	a2,-2032(gp) # 111a8 <y_acquire>
   1013c:	00d00693          	li	a3,13
   10140:	18d7ae23          	sw	a3,412(a5)
   10144:	0ff0000f          	fence
   10148:	19872603          	lw	a2,408(a4)
   1014c:	0ff0000f          	fence
   10150:	80c1a623          	sw	a2,-2036(gp) # 111a4 <y_sc>
   10154:	00200693          	li	a3,2
   10158:	19870613          	addi	a2,a4,408
   1015c:	08d6202f          	amoswap.w	zero,a3,(a2)
   10160:	01600693          	li	a3,22
   10164:	18d7ae23          	sw	a3,412(a5)
   10168:	00300693          	li	a3,3
   1016c:	0f50000f          	fence	iorw,ow
   10170:	08d6202f          	amoswap.w	zero,a3,(a2)
   10174:	01700613          	li	a2,23
   10178:	18c7ae23          	sw	a2,412(a5)
   1017c:	19870713          	addi	a4,a4,408
   10180:	0f50000f          	fence	iorw,ow
   10184:	0cd7202f          	amoswap.w.aq	zero,a3,(a4)
   10188:	06300713          	li	a4,99
   1018c:	18e7ae23          	sw	a4,412(a5)
   10190:	00100513          	li	a0,1
   10194:	00008067          	ret
