
build/atomics_test_1-O2:     file format elf64-littleriscv


Disassembly of section .note.gnu.build-id:

00000000000100e8 <.note.gnu.build-id>:
   100e8:	0004                	0x4
   100ea:	0000                	unimp
   100ec:	0014                	0x14
   100ee:	0000                	unimp
   100f0:	00000003          	lb	zero,0(zero) # 0 <main-0x1010c>
   100f4:	00554e47          	fmsub.s	ft8,fa0,ft5,ft0,rmm
   100f8:	3340                	fld	fs0,160(a4)
   100fa:	f989                	bnez	a1,1000c <main-0x100>
   100fc:	6f5e9a53          	0x6f5e9a53
   10100:	bcf5                	j	fbfc <main-0x510>
   10102:	3a71                	addiw	s4,s4,-4
   10104:	972482d3          	0x972482d3
   10108:	43dd                	li	t2,23
   1010a:	6ffe                	ld	t6,472(sp)

Disassembly of section .text:

000000000001010c <main>:
   1010c:	000117b7          	lui	a5,0x11
   10110:	00b00713          	li	a4,11
   10114:	18e7ae23          	sw	a4,412(a5) # 1119c <_edata>
   10118:	00011737          	lui	a4,0x11
   1011c:	19872603          	lw	a2,408(a4) # 11198 <x>
   10120:	000116b7          	lui	a3,0x11
   10124:	1ac6a023          	sw	a2,416(a3) # 111a0 <y_relaxed>
   10128:	00c00693          	li	a3,12
   1012c:	18d7ae23          	sw	a3,412(a5)
   10130:	19872603          	lw	a2,408(a4)
   10134:	0ff0000f          	fence
   10138:	80c1a823          	sw	a2,-2032(gp) # 111a8 <y_acquire>
   1013c:	00d00693          	li	a3,13
   10140:	18d7ae23          	sw	a3,412(a5)
   10144:	0ff0000f          	fence
   10148:	19872603          	lw	a2,408(a4)
   1014c:	0ff0000f          	fence
   10150:	80c1a623          	sw	a2,-2036(gp) # 111a4 <y_sc>
   10154:	00200693          	li	a3,2
   10158:	19870613          	addi	a2,a4,408
   1015c:	08d6202f          	amoswap.w	zero,a3,(a2)
   10160:	01600693          	li	a3,22
   10164:	18d7ae23          	sw	a3,412(a5)
   10168:	00300693          	li	a3,3
   1016c:	0f50000f          	fence	iorw,ow
   10170:	08d6202f          	amoswap.w	zero,a3,(a2)
   10174:	01700613          	li	a2,23
   10178:	18c7ae23          	sw	a2,412(a5)
   1017c:	19870713          	addi	a4,a4,408
   10180:	0f50000f          	fence	iorw,ow
   10184:	0cd7202f          	amoswap.w.aq	zero,a3,(a4)
   10188:	06300713          	li	a4,99
   1018c:	18e7ae23          	sw	a4,412(a5)
   10190:	00100513          	li	a0,1
   10194:	00008067          	ret

Disassembly of section .sdata:

0000000000011198 <x>:
   11198:	0001                	nop
	...

Disassembly of section .sbss:

000000000001119c <n>:
   1119c:	0000                	unimp
	...

Disassembly of section .bss:

00000000000111a0 <y_relaxed>:
   111a0:	0000                	unimp
	...

00000000000111a4 <y_sc>:
   111a4:	0000                	unimp
	...

00000000000111a8 <y_acquire>:
	...

Disassembly of section .comment:

0000000000000000 <.comment>:
   0:	3a434347          	fmsub.d	ft6,ft6,ft4,ft7,rmm
   4:	2820                	fld	fs0,80(s0)
   6:	6255                	lui	tp,0x15
   8:	6e75                	lui	t3,0x1d
   a:	7574                	ld	a3,232(a0)
   c:	3820                	fld	fs0,112(s0)
   e:	322e                	fld	ft4,232(sp)
  10:	302e                	fld	ft0,232(sp)
  12:	372d                	addiw	a4,a4,-21
  14:	6275                	lui	tp,0x1d
  16:	6e75                	lui	t3,0x1d
  18:	7574                	ld	a3,232(a0)
  1a:	2931                	addiw	s2,s2,12
  1c:	3820                	fld	fs0,112(s0)
  1e:	322e                	fld	ft4,232(sp)
  20:	302e                	fld	ft0,232(sp)
	...

Disassembly of section .debug_aranges:

0000000000000000 <.debug_aranges>:
   0:	002c                	addi	a1,sp,8
   2:	0000                	unimp
   4:	0002                	c.slli64	zero
   6:	0000                	unimp
   8:	0000                	unimp
   a:	0008                	0x8
   c:	0000                	unimp
   e:	0000                	unimp
  10:	010c                	addi	a1,sp,128
  12:	0001                	nop
  14:	0000                	unimp
  16:	0000                	unimp
  18:	008c                	addi	a1,sp,64
	...

Disassembly of section .debug_info:

0000000000000000 <.debug_info>:
   0:	029e                	slli	t0,t0,0x7
   2:	0000                	unimp
   4:	0004                	0x4
   6:	0000                	unimp
   8:	0000                	unimp
   a:	0108                	addi	a0,sp,128
   c:	00000053          	fadd.s	ft0,ft0,ft0,rne
  10:	ad0c                	fsd	fa1,24(a0)
  12:	0000                	unimp
  14:	8400                	0x8400
  16:	0001                	nop
	...
  28:	0200                	addi	s0,sp,256
  2a:	005c0407          	0x5c0407
  2e:	0000                	unimp
  30:	1e02                	slli	t3,t3,0x20
  32:	00005c03          	lhu	s8,0(zero) # 0 <main-0x1010c>
  36:	0300                	addi	s0,sp,384
  38:	0120                	addi	s0,sp,136
  3a:	0000                	unimp
  3c:	0300                	addi	s0,sp,384
  3e:	0148                	addi	a0,sp,132
  40:	0000                	unimp
  42:	0301                	addi	t1,t1,0
  44:	00e4                	addi	s1,sp,76
  46:	0000                	unimp
  48:	0302                	c.slli64	t1
  4a:	0000016f          	jal	sp,4a <main-0x100c2>
  4e:	00000303          	lb	t1,0(zero) # 0 <main-0x1010c>
  52:	0000                	unimp
  54:	0304                	addi	s1,sp,384
  56:	00f9                	addi	ra,ra,30
  58:	0000                	unimp
  5a:	0005                	c.nop	1
  5c:	0404                	addi	s1,sp,512
  5e:	00004607          	flq	fa2,0(zero) # 0 <main-0x1010c>
  62:	0400                	addi	s0,sp,512
  64:	0201                	addi	tp,tp,0
  66:	01d6                	slli	gp,gp,0x15
  68:	0000                	unimp
  6a:	0104                	addi	s1,sp,128
  6c:	df08                	sw	a0,56(a4)
  6e:	0000                	unimp
  70:	0400                	addi	s0,sp,512
  72:	0601                	addi	a2,a2,0
  74:	00d8                	addi	a4,sp,68
  76:	0000                	unimp
  78:	0104                	addi	s1,sp,128
  7a:	d608                	sw	a0,40(a2)
  7c:	0000                	unimp
  7e:	0400                	addi	s0,sp,512
  80:	0502                	c.slli64	a0
  82:	01b9                	addi	gp,gp,14
  84:	0000                	unimp
  86:	0204                	addi	s1,sp,256
  88:	0000be07          	fld	ft8,0(ra)
  8c:	0500                	addi	s0,sp,640
  8e:	0504                	addi	s1,sp,640
  90:	6e69                	lui	t3,0x1a
  92:	0074                	addi	a3,sp,12
  94:	0804                	addi	s1,sp,16
  96:	3f05                	addiw	t5,t5,-31
  98:	0001                	nop
  9a:	0400                	addi	s0,sp,512
  9c:	0708                	addi	a0,sp,896
  9e:	0041                	c.nop	16
  a0:	0000                	unimp
  a2:	0804                	addi	s1,sp,16
  a4:	3a05                	addiw	s4,s4,-31
  a6:	0001                	nop
  a8:	0400                	addi	s0,sp,512
  aa:	0708                	addi	a0,sp,896
  ac:	003c                	addi	a5,sp,8
  ae:	0000                	unimp
  b0:	7806                	ld	a6,96(sp)
  b2:	0100                	addi	s0,sp,128
  b4:	008d0e03          	lb	t3,8(s10)
  b8:	0000                	unimp
  ba:	0309                	addi	t1,t1,2
  bc:	1198                	addi	a4,sp,224
  be:	0001                	nop
  c0:	0000                	unimp
  c2:	0000                	unimp
  c4:	00001507          	0x1507
  c8:	0100                	addi	s0,sp,128
  ca:	0505                	addi	a0,a0,1
  cc:	008d                	addi	ra,ra,3
  ce:	0000                	unimp
  d0:	0309                	addi	t1,t1,2
  d2:	11a0                	addi	s0,sp,232
  d4:	0001                	nop
  d6:	0000                	unimp
  d8:	0000                	unimp
  da:	00001f07          	0x1f07
  de:	0100                	addi	s0,sp,128
  e0:	1005                	c.nop	-31
  e2:	008d                	addi	ra,ra,3
  e4:	0000                	unimp
  e6:	0309                	addi	t1,t1,2
  e8:	11a8                	addi	a0,sp,232
  ea:	0001                	nop
  ec:	0000                	unimp
  ee:	0000                	unimp
  f0:	0000d107          	0xd107
  f4:	0100                	addi	s0,sp,128
  f6:	1b05                	addi	s6,s6,-31
  f8:	008d                	addi	ra,ra,3
  fa:	0000                	unimp
  fc:	0309                	addi	t1,t1,2
  fe:	11a4                	addi	s1,sp,232
 100:	0001                	nop
 102:	0000                	unimp
 104:	0000                	unimp
 106:	6e06                	ld	t3,64(sp)
 108:	0100                	addi	s0,sp,128
 10a:	008d0507          	0x8d0507
 10e:	0000                	unimp
 110:	0309                	addi	t1,t1,2
 112:	119c                	addi	a5,sp,224
 114:	0001                	nop
 116:	0000                	unimp
 118:	0000                	unimp
 11a:	3508                	fld	fa0,40(a0)
 11c:	0001                	nop
 11e:	0100                	addi	s0,sp,128
 120:	0509                	addi	a0,a0,2
 122:	008d                	addi	ra,ra,3
 124:	0000                	unimp
 126:	010c                	addi	a1,sp,128
 128:	0001                	nop
 12a:	0000                	unimp
 12c:	0000                	unimp
 12e:	008c                	addi	a1,sp,64
 130:	0000                	unimp
 132:	0000                	unimp
 134:	0000                	unimp
 136:	9c01                	subw	s0,s0,s0
 138:	0000029b          	sext.w	t0,zero
 13c:	1809                	addi	a6,a6,-30
 13e:	0101                	addi	sp,sp,0
 140:	0000                	unimp
 142:	0000                	unimp
 144:	0800                	addi	s0,sp,16
 146:	0000                	unimp
 148:	0000                	unimp
 14a:	0000                	unimp
 14c:	7500                	ld	s0,40(a0)
 14e:	0001                	nop
 150:	0a00                	addi	s0,sp,272
 152:	015d                	addi	sp,sp,23
 154:	0000                	unimp
 156:	0b01                	addi	s6,s6,0
 158:	00029b2b          	0x29b2b
 15c:	0a00                	addi	s0,sp,272
 15e:	01119803          	lh	a6,17(gp) # 119a9 <__global_pointer$+0x11>
 162:	0000                	unimp
 164:	0000                	unimp
 166:	9f00                	0x9f00
 168:	00010e0b          	0x10e0b
 16c:	0100                	addi	s0,sp,128
 16e:	008d310b          	0x8d310b
 172:	0000                	unimp
 174:	0900                	addi	s0,sp,144
 176:	0130                	addi	a2,sp,136
 178:	0001                	nop
 17a:	0000                	unimp
 17c:	0000                	unimp
 17e:	0008                	0x8
 180:	0000                	unimp
 182:	0000                	unimp
 184:	0000                	unimp
 186:	01ae                	slli	gp,gp,0xb
 188:	0000                	unimp
 18a:	5d0a                	lw	s10,160(sp)
 18c:	0001                	nop
 18e:	0100                	addi	s0,sp,128
 190:	2b0d                	addiw	s6,s6,3
 192:	0000029b          	sext.w	t0,zero
 196:	030a                	slli	t1,t1,0x2
 198:	1198                	addi	a4,sp,224
 19a:	0001                	nop
 19c:	0000                	unimp
 19e:	0000                	unimp
 1a0:	0b9f 010e 0000      	0x10e0b9f
 1a6:	0d01                	addi	s10,s10,0
 1a8:	8d31                	xor	a0,a0,a2
 1aa:	0000                	unimp
 1ac:	0000                	unimp
 1ae:	4409                	li	s0,2
 1b0:	0101                	addi	sp,sp,0
 1b2:	0000                	unimp
 1b4:	0000                	unimp
 1b6:	0c00                	addi	s0,sp,528
 1b8:	0000                	unimp
 1ba:	0000                	unimp
 1bc:	0000                	unimp
 1be:	e700                	sd	s0,8(a4)
 1c0:	0001                	nop
 1c2:	0a00                	addi	s0,sp,272
 1c4:	015d                	addi	sp,sp,23
 1c6:	0000                	unimp
 1c8:	0f01                	addi	t5,t5,0
 1ca:	9b26                	add	s6,s6,s1
 1cc:	0002                	c.slli64	zero
 1ce:	0a00                	addi	s0,sp,272
 1d0:	01119803          	lh	a6,17(gp) # 119a9 <__global_pointer$+0x11>
 1d4:	0000                	unimp
 1d6:	0000                	unimp
 1d8:	9f00                	0x9f00
 1da:	00010e0b          	0x10e0b
 1de:	0100                	addi	s0,sp,128
 1e0:	008d2c0f          	0x8d2c0f
 1e4:	0000                	unimp
 1e6:	0900                	addi	s0,sp,144
 1e8:	0154                	addi	a3,sp,132
 1ea:	0001                	nop
 1ec:	0000                	unimp
 1ee:	0000                	unimp
 1f0:	000c                	0xc
 1f2:	0000                	unimp
 1f4:	0000                	unimp
 1f6:	0000                	unimp
 1f8:	0224                	addi	s1,sp,264
 1fa:	0000                	unimp
 1fc:	290a                	fld	fs2,128(sp)
 1fe:	0000                	unimp
 200:	0100                	addi	s0,sp,128
 202:	1f12                	slli	t5,t5,0x24
 204:	0000029b          	sext.w	t0,zero
 208:	030a                	slli	t1,t1,0x2
 20a:	1198                	addi	a4,sp,224
 20c:	0001                	nop
 20e:	0000                	unimp
 210:	0000                	unimp
 212:	0c9f 01c3 0000      	0x1c30c9f
 218:	1201                	addi	tp,tp,-32
 21a:	8d26                	mv	s10,s1
	...
 224:	6809                	lui	a6,0x2
 226:	0101                	addi	sp,sp,0
 228:	0000                	unimp
 22a:	0000                	unimp
 22c:	0c00                	addi	s0,sp,528
 22e:	0000                	unimp
 230:	0000                	unimp
 232:	0000                	unimp
 234:	6100                	ld	s0,0(a0)
 236:	0002                	c.slli64	zero
 238:	0a00                	addi	s0,sp,272
 23a:	0029                	c.nop	10
 23c:	0000                	unimp
 23e:	1401                	addi	s0,s0,-32
 240:	9b1f 0002 0a00      	0xa0000029b1f
 246:	01119803          	lh	a6,17(gp) # 119a9 <__global_pointer$+0x11>
 24a:	0000                	unimp
 24c:	0000                	unimp
 24e:	9f00                	0x9f00
 250:	c30c                	sw	a1,0(a4)
 252:	0001                	nop
 254:	0100                	addi	s0,sp,128
 256:	2614                	fld	fa3,8(a2)
 258:	008d                	addi	ra,ra,3
 25a:	0000                	unimp
 25c:	0024                	addi	s1,sp,8
 25e:	0000                	unimp
 260:	0d00                	addi	s0,sp,656
 262:	017c                	addi	a5,sp,140
 264:	0001                	nop
 266:	0000                	unimp
 268:	0000                	unimp
 26a:	000c                	0xc
 26c:	0000                	unimp
 26e:	0000                	unimp
 270:	0000                	unimp
 272:	290a                	fld	fs2,128(sp)
 274:	0000                	unimp
 276:	0100                	addi	s0,sp,128
 278:	1f16                	slli	t5,t5,0x25
 27a:	0000029b          	sext.w	t0,zero
 27e:	030a                	slli	t1,t1,0x2
 280:	1198                	addi	a4,sp,224
 282:	0001                	nop
 284:	0000                	unimp
 286:	0000                	unimp
 288:	0c9f 01c3 0000      	0x1c30c9f
 28e:	1601                	addi	a2,a2,-32
 290:	8d26                	mv	s10,s1
 292:	0000                	unimp
 294:	4800                	lw	s0,16(s0)
 296:	0000                	unimp
 298:	0000                	unimp
 29a:	0e00                	addi	s0,sp,784
 29c:	8d08                	0x8d08
 29e:	0000                	unimp
	...

Disassembly of section .debug_abbrev:

0000000000000000 <.debug_abbrev>:
   0:	1101                	addi	sp,sp,-32
   2:	2501                	sext.w	a0,a0
   4:	130e                	slli	t1,t1,0x23
   6:	1b0e030b          	0x1b0e030b
   a:	550e                	lw	a0,224(sp)
   c:	10011117          	auipc	sp,0x10011
  10:	02000017          	auipc	zero,0x2000
  14:	0104                	addi	s1,sp,128
  16:	0b3e                	slli	s6,s6,0xf
  18:	13490b0b          	0x13490b0b
  1c:	0b3a                	slli	s6,s6,0xe
  1e:	0b390b3b          	0xb390b3b
  22:	1301                	addi	t1,t1,-32
  24:	0000                	unimp
  26:	03002803          	lw	a6,48(zero) # 30 <main-0x100dc>
  2a:	1c0e                	slli	s8,s8,0x23
  2c:	0400000b          	0x400000b
  30:	0024                	addi	s1,sp,8
  32:	0b3e0b0b          	0xb3e0b0b
  36:	00000e03          	lb	t3,0(zero) # 0 <main-0x1010c>
  3a:	2405                	addiw	s0,s0,1
  3c:	0b00                	addi	s0,sp,400
  3e:	030b3e0b          	0x30b3e0b
  42:	0008                	0x8
  44:	0600                	addi	s0,sp,768
  46:	0034                	addi	a3,sp,8
  48:	0b3a0803          	lb	a6,179(s4)
  4c:	0b390b3b          	0xb390b3b
  50:	1349                	addi	t1,t1,-14
  52:	1802193f 34070000 	0x340700001802193f
  5a:	0300                	addi	s0,sp,384
  5c:	3a0e                	fld	fs4,224(sp)
  5e:	390b3b0b          	0x390b3b0b
  62:	3f13490b          	0x3f13490b
  66:	0219                	addi	tp,tp,6
  68:	0018                	0x18
  6a:	0800                	addi	s0,sp,16
  6c:	012e                	slli	sp,sp,0xb
  6e:	0e03193f 0b3b0b3a 	0xb3b0b3a0e03193f
  76:	0b39                	addi	s6,s6,14
  78:	1349                	addi	t1,t1,-14
  7a:	0111                	addi	sp,sp,4
  7c:	0712                	slli	a4,a4,0x4
  7e:	1840                	addi	s0,sp,52
  80:	01194297          	auipc	t0,0x1194
  84:	09000013          	li	zero,144
  88:	0111010b          	0x111010b
  8c:	0712                	slli	a4,a4,0x4
  8e:	1301                	addi	t1,t1,-32
  90:	0000                	unimp
  92:	340a                	fld	fs0,160(sp)
  94:	0300                	addi	s0,sp,384
  96:	3a0e                	fld	fs4,224(sp)
  98:	390b3b0b          	0x390b3b0b
  9c:	0213490b          	0x213490b
  a0:	0018                	0x18
  a2:	0b00                	addi	s0,sp,400
  a4:	0034                	addi	a3,sp,8
  a6:	0b3a0e03          	lb	t3,179(s4)
  aa:	0b390b3b          	0xb390b3b
  ae:	1349                	addi	t1,t1,-14
  b0:	0000                	unimp
  b2:	340c                	fld	fa1,40(s0)
  b4:	0300                	addi	s0,sp,384
  b6:	3a0e                	fld	fs4,224(sp)
  b8:	390b3b0b          	0x390b3b0b
  bc:	0213490b          	0x213490b
  c0:	0d000017          	auipc	zero,0xd000
  c4:	0111010b          	0x111010b
  c8:	0712                	slli	a4,a4,0x4
  ca:	0000                	unimp
  cc:	0f0e                	slli	t5,t5,0x3
  ce:	0b00                	addi	s0,sp,400
  d0:	0013490b          	0x13490b
	...

Disassembly of section .debug_line:

0000000000000000 <.debug_line>:
   0:	0204                	addi	s1,sp,256
   2:	0000                	unimp
   4:	0002                	c.slli64	zero
   6:	0065                	c.nop	25
   8:	0000                	unimp
   a:	0101                	addi	sp,sp,0
   c:	000d0efb          	0xd0efb
  10:	0101                	addi	sp,sp,0
  12:	0101                	addi	sp,sp,0
  14:	0000                	unimp
  16:	0100                	addi	s0,sp,128
  18:	0000                	unimp
  1a:	2f01                	sext.w	t5,t5
  1c:	7375                	lui	t1,0xffffd
  1e:	2f72                	fld	ft10,280(sp)
  20:	696c                	ld	a1,208(a0)
  22:	2f62                	fld	ft10,24(sp)
  24:	2d636367          	0x2d636367
  28:	736f7263          	bleu	s6,t5,74c <main-0xf9c0>
  2c:	69722f73          	csrrs	t5,0x697,tp
  30:	36766373          	csrrsi	t1,0x367,12
  34:	2d34                	fld	fa3,88(a0)
  36:	696c                	ld	a1,208(a0)
  38:	756e                	ld	a0,248(sp)
  3a:	2d78                	fld	fa4,216(a0)
  3c:	2f756e67          	0x2f756e67
  40:	2f38                	fld	fa4,88(a4)
  42:	6e69                	lui	t3,0x1a
  44:	64756c63          	bltu	a0,t2,69c <main-0xfa70>
  48:	0065                	c.nop	25
  4a:	6100                	ld	s0,0(a0)
  4c:	6f74                	ld	a3,216(a4)
  4e:	696d                	lui	s2,0x1b
  50:	745f7363          	bleu	t0,t5,796 <main-0xf976>
  54:	7365                	lui	t1,0xffff9
  56:	5f74                	lw	a3,124(a4)
  58:	2e31                	addiw	t3,t3,12
  5a:	00000063          	beqz	zero,5a <main-0x100b2>
  5e:	7300                	ld	s0,32(a4)
  60:	6474                	ld	a3,200(s0)
  62:	7461                	lui	s0,0xffff8
  64:	63696d6f          	jal	s10,9669a <__global_pointer$+0x84d02>
  68:	682e                	ld	a6,200(sp)
  6a:	0100                	addi	s0,sp,128
  6c:	0000                	unimp
  6e:	0500                	addi	s0,sp,640
  70:	000c                	0xc
  72:	0209                	addi	tp,tp,2
  74:	010c                	addi	a1,sp,128
  76:	0001                	nop
  78:	0000                	unimp
  7a:	0000                	unimp
  7c:	051a                	slli	a0,a0,0x6
  7e:	09010303          	lb	t1,144(sp) # 1001109c <__global_pointer$+0xffff704>
  82:	0000                	unimp
  84:	0501                	addi	a0,a0,0
  86:	0604                	addi	s1,sp,768
  88:	00090003          	lb	zero,0(s2) # 1b000 <__global_pointer$+0x9668>
  8c:	0100                	addi	s0,sp,128
  8e:	0305                	addi	t1,t1,1
  90:	0306                	slli	t1,t1,0x1
  92:	0901                	addi	s2,s2,0
  94:	000c                	0xc
  96:	0501                	addi	a0,a0,0
  98:	031f 0900 0000      	0x900031f
  9e:	0501                	addi	a0,a0,0
  a0:	0311                	addi	t1,t1,4
  a2:	0900                	addi	s0,sp,144
  a4:	0000                	unimp
  a6:	0501                	addi	a0,a0,0
  a8:	0344                	addi	s1,sp,388
  aa:	0900                	addi	s0,sp,144
  ac:	0000                	unimp
  ae:	0501                	addi	a0,a0,0
  b0:	0312                	slli	t1,t1,0x4
  b2:	0900                	addi	s0,sp,144
  b4:	0008                	0x8
  b6:	0501                	addi	a0,a0,0
  b8:	060d                	addi	a2,a2,3
  ba:	00090003          	lb	zero,0(s2)
  be:	0100                	addi	s0,sp,128
  c0:	0305                	addi	t1,t1,1
  c2:	0306                	slli	t1,t1,0x1
  c4:	0901                	addi	s2,s2,0
  c6:	0008                	0x8
  c8:	0501                	addi	a0,a0,0
  ca:	0604                	addi	s1,sp,768
  cc:	00090003          	lb	zero,0(s2)
  d0:	0100                	addi	s0,sp,128
  d2:	0305                	addi	t1,t1,1
  d4:	0306                	slli	t1,t1,0x1
  d6:	0901                	addi	s2,s2,0
  d8:	0008                	0x8
  da:	0501                	addi	a0,a0,0
  dc:	031f 0900 0000      	0x900031f
  e2:	0501                	addi	a0,a0,0
  e4:	0311                	addi	t1,t1,4
  e6:	0900                	addi	s0,sp,144
  e8:	0000                	unimp
  ea:	0501                	addi	a0,a0,0
  ec:	0344                	addi	s1,sp,388
  ee:	0900                	addi	s0,sp,144
  f0:	0000                	unimp
  f2:	0501                	addi	a0,a0,0
  f4:	0312                	slli	t1,t1,0x4
  f6:	0900                	addi	s0,sp,144
  f8:	0008                	0x8
  fa:	0501                	addi	a0,a0,0
  fc:	060d                	addi	a2,a2,3
  fe:	00090003          	lb	zero,0(s2)
 102:	0100                	addi	s0,sp,128
 104:	0305                	addi	t1,t1,1
 106:	0306                	slli	t1,t1,0x1
 108:	0901                	addi	s2,s2,0
 10a:	0004                	0x4
 10c:	0501                	addi	a0,a0,0
 10e:	0604                	addi	s1,sp,768
 110:	00090003          	lb	zero,0(s2)
 114:	0100                	addi	s0,sp,128
 116:	0305                	addi	t1,t1,1
 118:	0306                	slli	t1,t1,0x1
 11a:	0901                	addi	s2,s2,0
 11c:	0008                	0x8
 11e:	0501                	addi	a0,a0,0
 120:	031a                	slli	t1,t1,0x6
 122:	0900                	addi	s0,sp,144
 124:	0000                	unimp
 126:	0501                	addi	a0,a0,0
 128:	030c                	addi	a1,sp,384
 12a:	0900                	addi	s0,sp,144
 12c:	0000                	unimp
 12e:	0501                	addi	a0,a0,0
 130:	0900033f 05010000 	0x50100000900033f
 138:	030d                	addi	t1,t1,3
 13a:	0900                	addi	s0,sp,144
 13c:	000c                	0xc
 13e:	0501                	addi	a0,a0,0
 140:	0608                	addi	a0,sp,768
 142:	00090003          	lb	zero,0(s2)
 146:	0100                	addi	s0,sp,128
 148:	0305                	addi	t1,t1,1
 14a:	0306                	slli	t1,t1,0x1
 14c:	0902                	c.slli64	s2
 14e:	0004                	0x4
 150:	0501                	addi	a0,a0,0
 152:	0302                	c.slli64	t1
 154:	0901                	addi	s2,s2,0
 156:	0000                	unimp
 158:	0501                	addi	a0,a0,0
 15a:	09000313          	li	t1,144
 15e:	0000                	unimp
 160:	0501                	addi	a0,a0,0
 162:	0305                	addi	t1,t1,1
 164:	0900                	addi	s0,sp,144
 166:	0000                	unimp
 168:	0301                	addi	t1,t1,0
 16a:	0900                	addi	s0,sp,144
 16c:	0000                	unimp
 16e:	0501                	addi	a0,a0,0
 170:	09010303          	lb	t1,144(sp)
 174:	000c                	0xc
 176:	0501                	addi	a0,a0,0
 178:	0604                	addi	s1,sp,768
 17a:	00090003          	lb	zero,0(s2)
 17e:	0100                	addi	s0,sp,128
 180:	0205                	addi	tp,tp,1
 182:	0306                	slli	t1,t1,0x1
 184:	0901                	addi	s2,s2,0
 186:	0008                	0x8
 188:	0501                	addi	a0,a0,0
 18a:	09000313          	li	t1,144
 18e:	0000                	unimp
 190:	0501                	addi	a0,a0,0
 192:	0305                	addi	t1,t1,1
 194:	0900                	addi	s0,sp,144
 196:	0000                	unimp
 198:	0301                	addi	t1,t1,0
 19a:	0900                	addi	s0,sp,144
 19c:	0000                	unimp
 19e:	0501                	addi	a0,a0,0
 1a0:	09010303          	lb	t1,144(sp)
 1a4:	000c                	0xc
 1a6:	0501                	addi	a0,a0,0
 1a8:	0604                	addi	s1,sp,768
 1aa:	00090003          	lb	zero,0(s2)
 1ae:	0100                	addi	s0,sp,128
 1b0:	0205                	addi	tp,tp,1
 1b2:	0306                	slli	t1,t1,0x1
 1b4:	0901                	addi	s2,s2,0
 1b6:	0008                	0x8
 1b8:	0501                	addi	a0,a0,0
 1ba:	09000313          	li	t1,144
 1be:	0000                	unimp
 1c0:	0501                	addi	a0,a0,0
 1c2:	0305                	addi	t1,t1,1
 1c4:	0900                	addi	s0,sp,144
 1c6:	0000                	unimp
 1c8:	0301                	addi	t1,t1,0
 1ca:	0900                	addi	s0,sp,144
 1cc:	0000                	unimp
 1ce:	0501                	addi	a0,a0,0
 1d0:	09020303          	lb	t1,144(tp) # 1d090 <__global_pointer$+0xb6f8>
 1d4:	000c                	0xc
 1d6:	0501                	addi	a0,a0,0
 1d8:	0302                	c.slli64	t1
 1da:	0901                	addi	s2,s2,0
 1dc:	0000                	unimp
 1de:	0501                	addi	a0,a0,0
 1e0:	09020303          	lb	t1,144(tp) # 90 <main-0x1007c>
 1e4:	0000                	unimp
 1e6:	0501                	addi	a0,a0,0
 1e8:	0604                	addi	s1,sp,768
 1ea:	00090003          	lb	zero,0(s2)
 1ee:	0100                	addi	s0,sp,128
 1f0:	0305                	addi	t1,t1,1
 1f2:	0306                	slli	t1,t1,0x1
 1f4:	0902                	c.slli64	s2
 1f6:	0008                	0x8
 1f8:	0501                	addi	a0,a0,0
 1fa:	0601                	addi	a2,a2,0
 1fc:	00090103          	lb	sp,0(s2)
 200:	0100                	addi	s0,sp,128
 202:	0809                	addi	a6,a6,2
 204:	0000                	unimp
 206:	0101                	addi	sp,sp,0

Disassembly of section .debug_frame:

0000000000000000 <.debug_frame>:
   0:	000c                	0xc
   2:	0000                	unimp
   4:	ffff                	0xffff
   6:	ffff                	0xffff
   8:	7c010003          	lb	zero,1984(sp)
   c:	0c01                	addi	s8,s8,0
   e:	0002                	c.slli64	zero
  10:	0014                	0x14
  12:	0000                	unimp
  14:	0000                	unimp
  16:	0000                	unimp
  18:	010c                	addi	a1,sp,128
  1a:	0001                	nop
  1c:	0000                	unimp
  1e:	0000                	unimp
  20:	008c                	addi	a1,sp,64
  22:	0000                	unimp
  24:	0000                	unimp
	...

Disassembly of section .debug_str:

0000000000000000 <.debug_str>:
   0:	656d                	lui	a0,0x1b
   2:	6f6d                	lui	t5,0x1b
   4:	7972                	ld	s2,312(sp)
   6:	6f5f 6472 7265      	0x726564726f5f
   c:	615f 7163 725f      	0x725f7163615f
  12:	6c65                	lui	s8,0x19
  14:	7900                	ld	s0,48(a0)
  16:	725f 6c65 7861      	0x78616c65725f
  1c:	6465                	lui	s0,0x19
  1e:	7900                	ld	s0,48(a0)
  20:	615f 7163 6975      	0x69757163615f
  26:	6572                	ld	a0,280(sp)
  28:	5f00                	lw	s0,56(a4)
  2a:	615f 6f74 696d      	0x696d6f74615f
  30:	74735f63          	ble	t2,t1,78e <main-0xf97e>
  34:	5f65726f          	jal	tp,5762a <__global_pointer$+0x45c92>
  38:	7470                	ld	a2,232(s0)
  3a:	0072                	c.slli	zero,0x1c
  3c:	6f6c                	ld	a1,216(a4)
  3e:	676e                	ld	a4,216(sp)
  40:	6c20                	ld	s0,88(s0)
  42:	20676e6f          	jal	t3,76248 <__global_pointer$+0x648b0>
  46:	6e75                	lui	t3,0x1d
  48:	6e676973          	csrrsi	s2,0x6e6,14
  4c:	6465                	lui	s0,0x19
  4e:	6920                	ld	s0,80(a0)
  50:	746e                	ld	s0,248(sp)
  52:	4700                	lw	s0,8(a4)
  54:	554e                	lw	a0,240(sp)
  56:	4320                	lw	s0,64(a4)
  58:	3131                	addiw	sp,sp,-20
  5a:	3820                	fld	fs0,112(s0)
  5c:	322e                	fld	ft4,232(sp)
  5e:	302e                	fld	ft0,232(sp)
  60:	2d20                	fld	fs0,88(a0)
  62:	616d                	addi	sp,sp,240
  64:	6372                	ld	t1,280(sp)
  66:	3d68                	fld	fa0,248(a0)
  68:	7672                	ld	a2,312(sp)
  6a:	3436                	fld	fs0,360(sp)
  6c:	6d2d2067          	0x6d2d2067
  70:	6261                	lui	tp,0x18
  72:	3d69                	addiw	s10,s10,-6
  74:	706c                	ld	a1,224(s0)
  76:	3436                	fld	fs0,360(sp)
  78:	2064                	fld	fs1,192(s0)
  7a:	672d                	lui	a4,0xb
  7c:	2d20                	fld	fs0,88(a0)
  7e:	2d20324f          	0x2d20324f
  82:	3d647473          	csrrci	s0,0x3d6,8
  86:	20313163          	0x20313163
  8a:	662d                	lui	a2,0xb
  8c:	6f6e                	ld	t5,216(sp)
  8e:	642d                	lui	s0,0xb
  90:	66726177          	0x66726177
  94:	2d32                	fld	fs10,264(sp)
  96:	2d696663          	bltu	s2,s6,362 <main-0xfdaa>
  9a:	7361                	lui	t1,0xffff8
  9c:	206d                	0x206d
  9e:	662d                	lui	a2,0xb
  a0:	7266                	ld	tp,120(sp)
  a2:	6565                	lui	a0,0x19
  a4:	6e617473          	csrrci	s0,0x6e6,2
  a8:	6964                	ld	s1,208(a0)
  aa:	676e                	ld	a4,216(sp)
  ac:	6100                	ld	s0,0(a0)
  ae:	6f74                	ld	a3,216(a4)
  b0:	696d                	lui	s2,0x1b
  b2:	745f7363          	bleu	t0,t5,7f8 <main-0xf914>
  b6:	7365                	lui	t1,0xffff9
  b8:	5f74                	lw	a3,124(a4)
  ba:	2e31                	addiw	t3,t3,12
  bc:	68730063          	beq	t1,t2,73c <main-0xf9d0>
  c0:	2074726f          	jal	tp,47ac6 <__global_pointer$+0x3612e>
  c4:	6e75                	lui	t3,0x1d
  c6:	6e676973          	csrrsi	s2,0x6e6,14
  ca:	6465                	lui	s0,0x19
  cc:	6920                	ld	s0,80(a0)
  ce:	746e                	ld	s0,248(sp)
  d0:	7900                	ld	s0,48(a0)
  d2:	735f 0063 6e75      	0x6e750063735f
  d8:	6e676973          	csrrsi	s2,0x6e6,14
  dc:	6465                	lui	s0,0x19
  de:	6320                	ld	s0,64(a4)
  e0:	6168                	ld	a0,192(a0)
  e2:	0072                	c.slli	zero,0x1c
  e4:	656d                	lui	a0,0x1b
  e6:	6f6d                	lui	t5,0x1b
  e8:	7972                	ld	s2,312(sp)
  ea:	6f5f 6472 7265      	0x726564726f5f
  f0:	615f 7163 6975      	0x69757163615f
  f6:	6572                	ld	a0,280(sp)
  f8:	6d00                	ld	s0,24(a0)
  fa:	6d65                	lui	s10,0x19
  fc:	5f79726f          	jal	tp,97ef2 <__global_pointer$+0x8655a>
 100:	6564726f          	jal	tp,47756 <__global_pointer$+0x35dbe>
 104:	5f72                	lw	t5,60(sp)
 106:	5f716573          	csrrsi	a0,0x5f7,2
 10a:	00747363          	bleu	t2,s0,110 <main-0xfffc>
 10e:	5f5f 7461 6d6f      	0x6d6f74615f5f
 114:	6369                	lui	t1,0x1a
 116:	6c5f 616f 5f64      	0x5f64616f6c5f
 11c:	6d74                	ld	a3,216(a0)
 11e:	0070                	addi	a2,sp,12
 120:	656d                	lui	a0,0x1b
 122:	6f6d                	lui	t5,0x1b
 124:	7972                	ld	s2,312(sp)
 126:	6f5f 6472 7265      	0x726564726f5f
 12c:	725f 6c65 7861      	0x78616c65725f
 132:	6465                	lui	s0,0x19
 134:	6d00                	ld	s0,24(a0)
 136:	6961                	lui	s2,0x18
 138:	006e                	c.slli	zero,0x1b
 13a:	6f6c                	ld	a1,216(a4)
 13c:	676e                	ld	a4,216(sp)
 13e:	6c20                	ld	s0,88(s0)
 140:	20676e6f          	jal	t3,76346 <__global_pointer$+0x649ae>
 144:	6e69                	lui	t3,0x1a
 146:	0074                	addi	a3,sp,12
 148:	656d                	lui	a0,0x1b
 14a:	6f6d                	lui	t5,0x1b
 14c:	7972                	ld	s2,312(sp)
 14e:	6f5f 6472 7265      	0x726564726f5f
 154:	635f 6e6f 7573      	0x75736e6f635f
 15a:	656d                	lui	a0,0x1b
 15c:	5f00                	lw	s0,56(a4)
 15e:	615f 6f74 696d      	0x696d6f74615f
 164:	6f6c5f63          	ble	s6,s8,862 <main-0xf8aa>
 168:	6461                	lui	s0,0x18
 16a:	705f 7274 6d00      	0x6d007274705f
 170:	6d65                	lui	s10,0x19
 172:	5f79726f          	jal	tp,97f68 <__global_pointer$+0x865d0>
 176:	6564726f          	jal	tp,477cc <__global_pointer$+0x35e34>
 17a:	5f72                	lw	t5,60(sp)
 17c:	6572                	ld	a0,280(sp)
 17e:	656c                	ld	a1,200(a0)
 180:	7361                	lui	t1,0xffff8
 182:	0065                	c.nop	25
 184:	6d6f682f          	0x6d6f682f
 188:	2f65                	addiw	t5,t5,25
 18a:	6b616873          	csrrsi	a6,0x6b6,2
 18e:	6465                	lui	s0,0x19
 190:	6d65722f          	0x6d65722f
 194:	696c2f73          	csrrs	t5,0x696,s8
 198:	6d74                	ld	a3,216(a0)
 19a:	7375                	lui	t1,0xffffd
 19c:	742d                	lui	s0,0xfffeb
 19e:	7365                	lui	t1,0xffff9
 1a0:	7374                	ld	a3,224(a4)
 1a2:	722d                	lui	tp,0xfffeb
 1a4:	7369                	lui	t1,0xffffa
 1a6:	652f7663          	bleu	s2,t5,7f2 <main-0xf91a>
 1aa:	666c                	ld	a1,200(a2)
 1ac:	742d                	lui	s0,0xfffeb
 1ae:	7365                	lui	t1,0xffff9
 1b0:	7374                	ld	a3,224(a4)
 1b2:	7361622f          	0x7361622f
 1b6:	6369                	lui	t1,0x1a
 1b8:	7300                	ld	s0,32(a4)
 1ba:	6f68                	ld	a0,216(a4)
 1bc:	7472                	ld	s0,312(sp)
 1be:	6920                	ld	s0,80(a0)
 1c0:	746e                	ld	s0,248(sp)
 1c2:	5f00                	lw	s0,56(a4)
 1c4:	615f 6f74 696d      	0x696d6f74615f
 1ca:	74735f63          	ble	t2,t1,928 <main-0xf7e4>
 1ce:	5f65726f          	jal	tp,577c4 <__global_pointer$+0x45e2c>
 1d2:	6d74                	ld	a3,216(a0)
 1d4:	0070                	addi	a2,sp,12
 1d6:	425f 6f6f 006c      	0x6c6f6f425f

Disassembly of section .debug_loc:

0000000000000000 <.debug_loc>:
   0:	0154                	addi	a3,sp,132
   2:	0001                	nop
   4:	0000                	unimp
   6:	0000                	unimp
   8:	0160                	addi	s0,sp,140
   a:	0001                	nop
   c:	0000                	unimp
   e:	0000                	unimp
  10:	0002                	c.slli64	zero
  12:	9f32                	add	t5,t5,a2
	...
  24:	0168                	addi	a0,sp,140
  26:	0001                	nop
  28:	0000                	unimp
  2a:	0000                	unimp
  2c:	0174                	addi	a3,sp,140
  2e:	0001                	nop
  30:	0000                	unimp
  32:	0000                	unimp
  34:	0002                	c.slli64	zero
  36:	00009f33          	sll	t5,ra,zero
	...
  46:	0000                	unimp
  48:	017c                	addi	a5,sp,140
  4a:	0001                	nop
  4c:	0000                	unimp
  4e:	0000                	unimp
  50:	0188                	addi	a0,sp,192
  52:	0001                	nop
  54:	0000                	unimp
  56:	0000                	unimp
  58:	0002                	c.slli64	zero
  5a:	00009f33          	sll	t5,ra,zero
	...

Disassembly of section .debug_ranges:

0000000000000000 <.debug_ranges>:
   0:	010c                	addi	a1,sp,128
   2:	0001                	nop
   4:	0000                	unimp
   6:	0000                	unimp
   8:	0198                	addi	a4,sp,192
   a:	0001                	nop
	...
