
build/demsky-O2:     file format elf64-littleriscv


Disassembly of section .text:

000000000001010c <main>:
   1010c:	00010537          	lui	a0,0x10
   10110:	12c50513          	addi	a0,a0,300 # 1012c <thread1>
   10114:	c0de000b          	0xc0de000b
   10118:	00010537          	lui	a0,0x10
   1011c:	16c50513          	addi	a0,a0,364 # 1016c <thread2>
   10120:	c0de000b          	0xc0de000b
   10124:	00100513          	li	a0,1
   10128:	00008067          	ret

000000000001012c <thread1>:
   1012c:	80c1a783          	lw	a5,-2036(gp) # 111bc <_edata+0x4>
   10130:	000116b7          	lui	a3,0x11
   10134:	1b068593          	addi	a1,a3,432 # 111b0 <y>
   10138:	0007879b          	sext.w	a5,a5
   1013c:	0007861b          	sext.w	a2,a5
   10140:	00261713          	slli	a4,a2,0x2
   10144:	80c1ae23          	sw	a2,-2020(gp) # 111cc <r1>
   10148:	00b70733          	add	a4,a4,a1
   1014c:	08f7202f          	amoswap.w	zero,a5,(a4)
   10150:	1b06a783          	lw	a5,432(a3)
   10154:	0007879b          	sext.w	a5,a5
   10158:	80f1ac23          	sw	a5,-2024(gp) # 111c8 <r2>
   1015c:	00011737          	lui	a4,0x11
   10160:	1b470713          	addi	a4,a4,436 # 111b4 <y+0x4>
   10164:	08f7202f          	amoswap.w	zero,a5,(a4)
   10168:	00008067          	ret

000000000001016c <thread2>:
   1016c:	000117b7          	lui	a5,0x11
   10170:	1b47a783          	lw	a5,436(a5) # 111b4 <y+0x4>
   10174:	000116b7          	lui	a3,0x11
   10178:	1b868593          	addi	a1,a3,440 # 111b8 <_edata>
   1017c:	0007879b          	sext.w	a5,a5
   10180:	0007861b          	sext.w	a2,a5
   10184:	00261713          	slli	a4,a2,0x2
   10188:	80c1a823          	sw	a2,-2032(gp) # 111c0 <r3>
   1018c:	00b70733          	add	a4,a4,a1
   10190:	08f7202f          	amoswap.w	zero,a5,(a4)
   10194:	1b86a783          	lw	a5,440(a3)
   10198:	0007879b          	sext.w	a5,a5
   1019c:	80f1aa23          	sw	a5,-2028(gp) # 111c4 <r4>
   101a0:	80c18713          	addi	a4,gp,-2036 # 111bc <_edata+0x4>
   101a4:	08f7202f          	amoswap.w	zero,a5,(a4)
   101a8:	00008067          	ret
