
build/demsky-O1:     file format elf64-littleriscv


Disassembly of section .text:

000000000001010c <thread1>:
   1010c:	80c1a703          	lw	a4,-2036(gp) # 111bc <_edata+0x4>
   10110:	0007071b          	sext.w	a4,a4
   10114:	0007079b          	sext.w	a5,a4
   10118:	80f1ae23          	sw	a5,-2020(gp) # 111cc <r1>
   1011c:	00279793          	slli	a5,a5,0x2
   10120:	000116b7          	lui	a3,0x11
   10124:	1b068613          	addi	a2,a3,432 # 111b0 <y>
   10128:	00c787b3          	add	a5,a5,a2
   1012c:	08e7a02f          	amoswap.w	zero,a4,(a5)
   10130:	1b06a783          	lw	a5,432(a3)
   10134:	0007879b          	sext.w	a5,a5
   10138:	80f1ac23          	sw	a5,-2024(gp) # 111c8 <r2>
   1013c:	00011737          	lui	a4,0x11
   10140:	1b470713          	addi	a4,a4,436 # 111b4 <y+0x4>
   10144:	08f7202f          	amoswap.w	zero,a5,(a4)
   10148:	00008067          	ret

000000000001014c <thread2>:
   1014c:	000117b7          	lui	a5,0x11
   10150:	1b47a703          	lw	a4,436(a5) # 111b4 <y+0x4>
   10154:	0007071b          	sext.w	a4,a4
   10158:	0007079b          	sext.w	a5,a4
   1015c:	80f1a823          	sw	a5,-2032(gp) # 111c0 <r3>
   10160:	00279793          	slli	a5,a5,0x2
   10164:	000116b7          	lui	a3,0x11
   10168:	1b868613          	addi	a2,a3,440 # 111b8 <_edata>
   1016c:	00c787b3          	add	a5,a5,a2
   10170:	08e7a02f          	amoswap.w	zero,a4,(a5)
   10174:	1b86a783          	lw	a5,440(a3)
   10178:	0007879b          	sext.w	a5,a5
   1017c:	80f1aa23          	sw	a5,-2028(gp) # 111c4 <r4>
   10180:	80c18713          	addi	a4,gp,-2036 # 111bc <_edata+0x4>
   10184:	08f7202f          	amoswap.w	zero,a5,(a4)
   10188:	00008067          	ret

000000000001018c <main>:
   1018c:	00010537          	lui	a0,0x10
   10190:	10c50513          	addi	a0,a0,268 # 1010c <thread1>
   10194:	c0de000b          	0xc0de000b
   10198:	00010537          	lui	a0,0x10
   1019c:	14c50513          	addi	a0,a0,332 # 1014c <thread2>
   101a0:	c0de000b          	0xc0de000b
   101a4:	00100513          	li	a0,1
   101a8:	00008067          	ret
