
build/function_call_1-O0:     file format elf64-littleriscv


Disassembly of section .text:

000000000001010c <f>:
   1010c:	fd010113          	addi	sp,sp,-48
   10110:	02813423          	sd	s0,40(sp)
   10114:	03010413          	addi	s0,sp,48
   10118:	00050793          	mv	a5,a0
   1011c:	fcf42e23          	sw	a5,-36(s0)
   10120:	fdc42783          	lw	a5,-36(s0)
   10124:	fef42623          	sw	a5,-20(s0)
   10128:	000117b7          	lui	a5,0x11
   1012c:	1b47a783          	lw	a5,436(a5) # 111b4 <n>
   10130:	fdc42703          	lw	a4,-36(s0)
   10134:	00f707bb          	addw	a5,a4,a5
   10138:	0007871b          	sext.w	a4,a5
   1013c:	000117b7          	lui	a5,0x11
   10140:	1ae7aa23          	sw	a4,436(a5) # 111b4 <n>
   10144:	000117b7          	lui	a5,0x11
   10148:	1b47a783          	lw	a5,436(a5) # 111b4 <n>
   1014c:	00078513          	mv	a0,a5
   10150:	02813403          	ld	s0,40(sp)
   10154:	03010113          	addi	sp,sp,48
   10158:	00008067          	ret

000000000001015c <main>:
   1015c:	fe010113          	addi	sp,sp,-32
   10160:	00113c23          	sd	ra,24(sp)
   10164:	00813823          	sd	s0,16(sp)
   10168:	02010413          	addi	s0,sp,32
   1016c:	00500513          	li	a0,5
   10170:	f9dff0ef          	jal	ra,1010c <f>
   10174:	00050793          	mv	a5,a0
   10178:	fef42623          	sw	a5,-20(s0)
   1017c:	000107b7          	lui	a5,0x10
   10180:	10c78793          	addi	a5,a5,268 # 1010c <f>
   10184:	fef43023          	sd	a5,-32(s0)
   10188:	fe043783          	ld	a5,-32(s0)
   1018c:	00500513          	li	a0,5
   10190:	000780e7          	jalr	a5
   10194:	00050793          	mv	a5,a0
   10198:	fef42623          	sw	a5,-20(s0)
   1019c:	00100793          	li	a5,1
   101a0:	00078513          	mv	a0,a5
   101a4:	01813083          	ld	ra,24(sp)
   101a8:	01013403          	ld	s0,16(sp)
   101ac:	02010113          	addi	sp,sp,32
   101b0:	00008067          	ret
