
build/function_call_1-O1:     file format elf64-littleriscv


Disassembly of section .note.gnu.build-id:

00000000000100e8 <.note.gnu.build-id>:
   100e8:	0004                	0x4
   100ea:	0000                	unimp
   100ec:	0014                	0x14
   100ee:	0000                	unimp
   100f0:	00000003          	lb	zero,0(zero) # 0 <f-0x1010c>
   100f4:	00554e47          	fmsub.s	ft8,fa0,ft5,ft0,rmm
   100f8:	dc02                	sw	zero,56(sp)
   100fa:	be5a9a6b          	0xbe5a9a6b
   100fe:	24b8                	fld	fa4,72(s1)
   10100:	3222                	fld	ft4,40(sp)
   10102:	0748                	addi	a0,sp,900
   10104:	ac14                	fsd	fa3,24(s0)
   10106:	fd1a                	sd	t1,184(sp)
   10108:	131f 0c65       	0xc65131f

Disassembly of section .text:

000000000001010c <f>:
   1010c:	00011737          	lui	a4,0x11
   10110:	14c72783          	lw	a5,332(a4) # 1114c <n>
   10114:	00a7853b          	addw	a0,a5,a0
   10118:	14a72623          	sw	a0,332(a4)
   1011c:	0005051b          	sext.w	a0,a0
   10120:	00008067          	ret

0000000000010124 <main>:
   10124:	ff010113          	addi	sp,sp,-16
   10128:	00113423          	sd	ra,8(sp)
   1012c:	00500513          	li	a0,5
   10130:	fddff0ef          	jal	ra,1010c <f>
   10134:	00500513          	li	a0,5
   10138:	fd5ff0ef          	jal	ra,1010c <f>
   1013c:	00100513          	li	a0,1
   10140:	00813083          	ld	ra,8(sp)
   10144:	01010113          	addi	sp,sp,16
   10148:	00008067          	ret

Disassembly of section .sdata:

000000000001114c <n>:
   1114c:	00000003          	lb	zero,0(zero) # 0 <f-0x1010c>

Disassembly of section .comment:

0000000000000000 <.comment>:
   0:	3a434347          	fmsub.d	ft6,ft6,ft4,ft7,rmm
   4:	2820                	fld	fs0,80(s0)
   6:	6255                	lui	tp,0x15
   8:	6e75                	lui	t3,0x1d
   a:	7574                	ld	a3,232(a0)
   c:	3820                	fld	fs0,112(s0)
   e:	322e                	fld	ft4,232(sp)
  10:	302e                	fld	ft0,232(sp)
  12:	372d                	addiw	a4,a4,-21
  14:	6275                	lui	tp,0x1d
  16:	6e75                	lui	t3,0x1d
  18:	7574                	ld	a3,232(a0)
  1a:	2931                	addiw	s2,s2,12
  1c:	3820                	fld	fs0,112(s0)
  1e:	322e                	fld	ft4,232(sp)
  20:	302e                	fld	ft0,232(sp)
	...

Disassembly of section .debug_aranges:

0000000000000000 <.debug_aranges>:
   0:	002c                	addi	a1,sp,8
   2:	0000                	unimp
   4:	0002                	c.slli64	zero
   6:	0000                	unimp
   8:	0000                	unimp
   a:	0008                	0x8
   c:	0000                	unimp
   e:	0000                	unimp
  10:	010c                	addi	a1,sp,128
  12:	0001                	nop
  14:	0000                	unimp
  16:	0000                	unimp
  18:	0040                	addi	s0,sp,4
	...

Disassembly of section .debug_info:

0000000000000000 <.debug_info>:
   0:	00ff                	0xff
   2:	0000                	unimp
   4:	0004                	0x4
   6:	0000                	unimp
   8:	0000                	unimp
   a:	0108                	addi	a0,sp,128
   c:	0000                	unimp
   e:	0000                	unimp
  10:	5a0c                	lw	a1,48(a2)
  12:	0000                	unimp
  14:	6c00                	ld	s0,24(s0)
  16:	0000                	unimp
  18:	0c00                	addi	s0,sp,528
  1a:	0101                	addi	sp,sp,0
  1c:	0000                	unimp
  1e:	0000                	unimp
  20:	4000                	lw	s0,0(s0)
	...
  2a:	0000                	unimp
  2c:	0200                	addi	s0,sp,256
  2e:	006e                	c.slli	zero,0x1b
  30:	0101                	addi	sp,sp,0
  32:	4105                	li	sp,1
  34:	0000                	unimp
  36:	0900                	addi	s0,sp,144
  38:	01114c03          	lbu	s8,17(sp)
  3c:	0000                	unimp
  3e:	0000                	unimp
  40:	0300                	addi	s0,sp,384
  42:	0504                	addi	s1,sp,640
  44:	6e69                	lui	t3,0x1a
  46:	0074                	addi	a3,sp,12
  48:	a104                	fsd	fs1,0(a0)
  4a:	0000                	unimp
  4c:	0100                	addi	s0,sp,128
  4e:	050a                	slli	a0,a0,0x2
  50:	0041                	c.nop	16
  52:	0000                	unimp
  54:	0124                	addi	s1,sp,136
  56:	0001                	nop
  58:	0000                	unimp
  5a:	0000                	unimp
  5c:	0028                	addi	a0,sp,8
  5e:	0000                	unimp
  60:	0000                	unimp
  62:	0000                	unimp
  64:	9c01                	subw	s0,s0,s0
  66:	00b4                	addi	a3,sp,72
  68:	0000                	unimp
  6a:	6205                	lui	tp,0x1
  6c:	0100                	addi	s0,sp,128
  6e:	0041070b          	0x41070b
  72:	0000                	unimp
  74:	7006                	0x7006
  76:	0100                	addi	s0,sp,128
  78:	090e                	slli	s2,s2,0x3
  7a:	000000c3          	fmadd.s	ft1,ft0,ft0,ft0,rne
  7e:	030a                	slli	t1,t1,0x2
  80:	010c                	addi	a1,sp,128
  82:	0001                	nop
  84:	0000                	unimp
  86:	0000                	unimp
  88:	079f 0134 0001      	0x10134079f
  8e:	0000                	unimp
  90:	0000                	unimp
  92:	00c9                	addi	ra,ra,18
  94:	0000                	unimp
  96:	00a0                	addi	s0,sp,72
  98:	0000                	unimp
  9a:	0108                	addi	a0,sp,128
  9c:	015a                	slli	sp,sp,0x16
  9e:	0035                	c.nop	13
  a0:	3c09                	addiw	s8,s8,-30
  a2:	0101                	addi	sp,sp,0
  a4:	0000                	unimp
  a6:	0000                	unimp
  a8:	c900                	sw	s0,16(a0)
  aa:	0000                	unimp
  ac:	0800                	addi	s0,sp,16
  ae:	5a01                	li	s4,-32
  b0:	3501                	addiw	a0,a0,-32
  b2:	0000                	unimp
  b4:	410a                	lw	sp,128(sp)
  b6:	0000                	unimp
  b8:	c300                	sw	s0,0(a4)
  ba:	0000                	unimp
  bc:	0b00                	addi	s0,sp,400
  be:	0041                	c.nop	16
  c0:	0000                	unimp
  c2:	0c00                	addi	s0,sp,528
  c4:	b408                	fsd	fa0,40(s0)
  c6:	0000                	unimp
  c8:	0d00                	addi	s0,sp,656
  ca:	0066                	c.slli	zero,0x19
  cc:	0301                	addi	t1,t1,0
  ce:	4105                	li	sp,1
  d0:	0000                	unimp
  d2:	0c00                	addi	s0,sp,528
  d4:	0101                	addi	sp,sp,0
  d6:	0000                	unimp
  d8:	0000                	unimp
  da:	1800                	addi	s0,sp,48
  dc:	0000                	unimp
  de:	0000                	unimp
  e0:	0000                	unimp
  e2:	0100                	addi	s0,sp,128
  e4:	0e9c                	addi	a5,sp,848
  e6:	0061                	c.nop	24
  e8:	0301                	addi	t1,t1,0
  ea:	0000410b          	0x410b
  ee:	0000                	unimp
  f0:	0000                	unimp
  f2:	0f00                	addi	s0,sp,912
  f4:	0078                	addi	a4,sp,12
  f6:	0401                	addi	s0,s0,0
  f8:	00004107          	flq	ft2,0(zero) # 0 <f-0x1010c>
  fc:	3900                	fld	fs0,48(a0)
  fe:	0000                	unimp
 100:	0000                	unimp
	...

Disassembly of section .debug_abbrev:

0000000000000000 <.debug_abbrev>:
   0:	1101                	addi	sp,sp,-32
   2:	2501                	sext.w	a0,a0
   4:	130e                	slli	t1,t1,0x23
   6:	1b0e030b          	0x1b0e030b
   a:	110e                	slli	sp,sp,0x23
   c:	1201                	addi	tp,tp,-32
   e:	00171007          	0x171007
  12:	0200                	addi	s0,sp,256
  14:	0034                	addi	a3,sp,8
  16:	0b3a0803          	lb	a6,179(s4)
  1a:	0b390b3b          	0xb390b3b
  1e:	1349                	addi	t1,t1,-14
  20:	1802193f 24030000 	0x240300001802193f
  28:	0b00                	addi	s0,sp,400
  2a:	030b3e0b          	0x30b3e0b
  2e:	0008                	0x8
  30:	0400                	addi	s0,sp,512
  32:	012e                	slli	sp,sp,0xb
  34:	0e03193f 0b3b0b3a 	0xb3b0b3a0e03193f
  3c:	0b39                	addi	s6,s6,14
  3e:	1349                	addi	t1,t1,-14
  40:	0111                	addi	sp,sp,4
  42:	0712                	slli	a4,a4,0x4
  44:	1840                	addi	s0,sp,52
  46:	01194297          	auipc	t0,0x1194
  4a:	05000013          	li	zero,80
  4e:	0034                	addi	a3,sp,8
  50:	0b3a0803          	lb	a6,179(s4)
  54:	0b390b3b          	0xb390b3b
  58:	1349                	addi	t1,t1,-14
  5a:	0000                	unimp
  5c:	3406                	fld	fs0,96(sp)
  5e:	0300                	addi	s0,sp,384
  60:	3a08                	fld	fa0,48(a2)
  62:	390b3b0b          	0x390b3b0b
  66:	0213490b          	0x213490b
  6a:	0018                	0x18
  6c:	0700                	addi	s0,sp,896
  6e:	8289                	srli	a3,a3,0x2
  70:	0101                	addi	sp,sp,0
  72:	0111                	addi	sp,sp,4
  74:	1331                	addi	t1,t1,-20
  76:	1301                	addi	t1,t1,-32
  78:	0000                	unimp
  7a:	8a08                	0x8a08
  7c:	0182                	c.slli64	gp
  7e:	0200                	addi	s0,sp,256
  80:	9118                	0x9118
  82:	1842                	slli	a6,a6,0x30
  84:	0000                	unimp
  86:	8909                	andi	a0,a0,2
  88:	0182                	c.slli64	gp
  8a:	1101                	addi	sp,sp,-32
  8c:	3101                	addiw	sp,sp,-32
  8e:	0a000013          	li	zero,160
  92:	0115                	addi	sp,sp,5
  94:	13491927          	0x13491927
  98:	1301                	addi	t1,t1,-32
  9a:	0000                	unimp
  9c:	4900050b          	0x4900050b
  a0:	0c000013          	li	zero,192
  a4:	0b0b000f          	0xb0b000f
  a8:	1349                	addi	t1,t1,-14
  aa:	0000                	unimp
  ac:	2e0d                	addiw	t3,t3,3
  ae:	3f01                	addiw	t5,t5,-32
  b0:	0319                	addi	t1,t1,6
  b2:	3a08                	fld	fa0,48(a2)
  b4:	390b3b0b          	0x390b3b0b
  b8:	4919270b          	0x4919270b
  bc:	12011113          	0x12011113
  c0:	97184007          	flq	ft0,-1679(a6)
  c4:	1942                	slli	s2,s2,0x30
  c6:	0000                	unimp
  c8:	050e                	slli	a0,a0,0x3
  ca:	0300                	addi	s0,sp,384
  cc:	3a08                	fld	fa0,48(a2)
  ce:	390b3b0b          	0x390b3b0b
  d2:	0213490b          	0x213490b
  d6:	0f000017          	auipc	zero,0xf000
  da:	0034                	addi	a3,sp,8
  dc:	0b3a0803          	lb	a6,179(s4)
  e0:	0b390b3b          	0xb390b3b
  e4:	1349                	addi	t1,t1,-14
  e6:	1702                	slli	a4,a4,0x20
  e8:	0000                	unimp
	...

Disassembly of section .debug_line:

0000000000000000 <.debug_line>:
   0:	000000c3          	fmadd.s	ft1,ft0,ft0,ft0,rne
   4:	0002                	c.slli64	zero
   6:	0028                	addi	a0,sp,8
   8:	0000                	unimp
   a:	0101                	addi	sp,sp,0
   c:	000d0efb          	0xd0efb
  10:	0101                	addi	sp,sp,0
  12:	0101                	addi	sp,sp,0
  14:	0000                	unimp
  16:	0100                	addi	s0,sp,128
  18:	0000                	unimp
  1a:	0001                	nop
  1c:	7566                	ld	a0,120(sp)
  1e:	636e                	ld	t1,216(sp)
  20:	6974                	ld	a3,208(a0)
  22:	635f6e6f          	jal	t3,f6e56 <__global_pointer$+0xe550a>
  26:	6c61                	lui	s8,0x18
  28:	5f6c                	lw	a1,124(a4)
  2a:	2e31                	addiw	t3,t3,12
  2c:	00000063          	beqz	zero,2c <f-0x100e0>
  30:	0000                	unimp
  32:	0e05                	addi	t3,t3,1
  34:	0900                	addi	s0,sp,144
  36:	0c02                	c.slli64	s8
  38:	0101                	addi	sp,sp,0
  3a:	0000                	unimp
  3c:	0000                	unimp
  3e:	1400                	addi	s0,sp,544
  40:	0305                	addi	t1,t1,1
  42:	00090103          	lb	sp,0(s2)
  46:	0100                	addi	s0,sp,128
  48:	00090103          	lb	sp,0(s2)
  4c:	0100                	addi	s0,sp,128
  4e:	00090103          	lb	sp,0(s2)
  52:	0100                	addi	s0,sp,128
  54:	0905                	addi	s2,s2,1
  56:	0306                	slli	t1,t1,0x1
  58:	0900                	addi	s0,sp,144
  5a:	0000                	unimp
  5c:	0501                	addi	a0,a0,0
  5e:	0305                	addi	t1,t1,1
  60:	0900                	addi	s0,sp,144
  62:	000c                	0xc
  64:	0501                	addi	a0,a0,0
  66:	01030603          	lb	a2,16(t1)
  6a:	0409                	addi	s0,s0,2
  6c:	0100                	addi	s0,sp,128
  6e:	0105                	addi	sp,sp,1
  70:	0306                	slli	t1,t1,0x1
  72:	0901                	addi	s2,s2,0
  74:	0000                	unimp
  76:	0501                	addi	a0,a0,0
  78:	060c                	addi	a1,sp,768
  7a:	08090203          	lb	tp,128(s2)
  7e:	0100                	addi	s0,sp,128
  80:	0305                	addi	t1,t1,1
  82:	08090103          	lb	sp,128(s2)
  86:	0100                	addi	s0,sp,128
  88:	00090103          	lb	sp,0(s2)
  8c:	0100                	addi	s0,sp,128
  8e:	0705                	addi	a4,a4,1
  90:	0306                	slli	t1,t1,0x1
  92:	0900                	addi	s0,sp,144
  94:	0000                	unimp
  96:	0501                	addi	a0,a0,0
  98:	02030603          	lb	a2,32(t1)
  9c:	0809                	addi	a6,a6,2
  9e:	0100                	addi	s0,sp,128
  a0:	00090103          	lb	sp,0(s2)
  a4:	0100                	addi	s0,sp,128
  a6:	0805                	addi	a6,a6,1
  a8:	0306                	slli	t1,t1,0x1
  aa:	0900                	addi	s0,sp,144
  ac:	0000                	unimp
  ae:	0501                	addi	a0,a0,0
  b0:	01030603          	lb	a2,16(t1)
  b4:	0809                	addi	a6,a6,2
  b6:	0100                	addi	s0,sp,128
  b8:	0105                	addi	sp,sp,1
  ba:	0306                	slli	t1,t1,0x1
  bc:	0901                	addi	s2,s2,0
  be:	0000                	unimp
  c0:	0901                	addi	s2,s2,0
  c2:	0010                	0x10
  c4:	0100                	addi	s0,sp,128
  c6:	01              	Address 0x00000000000000c6 is out of bounds.


Disassembly of section .debug_frame:

0000000000000000 <.debug_frame>:
   0:	000c                	0xc
   2:	0000                	unimp
   4:	ffff                	0xffff
   6:	ffff                	0xffff
   8:	7c010003          	lb	zero,1984(sp)
   c:	0c01                	addi	s8,s8,0
   e:	0002                	c.slli64	zero
  10:	0014                	0x14
  12:	0000                	unimp
  14:	0000                	unimp
  16:	0000                	unimp
  18:	010c                	addi	a1,sp,128
  1a:	0001                	nop
  1c:	0000                	unimp
  1e:	0000                	unimp
  20:	0018                	0x18
  22:	0000                	unimp
  24:	0000                	unimp
  26:	0000                	unimp
  28:	0034                	addi	a3,sp,8
  2a:	0000                	unimp
  2c:	0000                	unimp
  2e:	0000                	unimp
  30:	0124                	addi	s1,sp,136
  32:	0001                	nop
  34:	0000                	unimp
  36:	0000                	unimp
  38:	0028                	addi	a0,sp,8
  3a:	0000                	unimp
  3c:	0000                	unimp
  3e:	0000                	unimp
  40:	0404                	addi	s1,sp,512
  42:	0000                	unimp
  44:	0e00                	addi	s0,sp,784
  46:	0410                	addi	a2,sp,512
  48:	0004                	0x4
  4a:	0000                	unimp
  4c:	0281                	addi	t0,t0,0
  4e:	1804                	addi	s1,sp,48
  50:	0000                	unimp
  52:	c100                	sw	s0,0(a0)
  54:	0404                	addi	s1,sp,512
  56:	0000                	unimp
  58:	0e00                	addi	s0,sp,784
  5a:	0000                	unimp
  5c:	0000                	unimp
	...

Disassembly of section .debug_str:

0000000000000000 <.debug_str>:
   0:	20554e47          	fmsub.s	ft8,fa0,ft5,ft4,rmm
   4:	20313143          	fmadd.s	ft2,ft2,ft3,ft4,rup
   8:	2e38                	fld	fa4,88(a2)
   a:	2e32                	fld	ft8,264(sp)
   c:	2030                	fld	fa2,64(s0)
   e:	6d2d                	lui	s10,0xb
  10:	7261                	lui	tp,0xffff8
  12:	723d6863          	bltu	s10,gp,742 <f-0xf9ca>
  16:	3676                	fld	fa2,376(sp)
  18:	6734                	ld	a3,72(a4)
  1a:	2d20                	fld	fs0,88(a0)
  1c:	616d                	addi	sp,sp,240
  1e:	6962                	ld	s2,24(sp)
  20:	6c3d                	lui	s8,0xf
  22:	3670                	fld	fa2,232(a2)
  24:	6434                	ld	a3,72(s0)
  26:	2d20                	fld	fs0,88(a0)
  28:	4f2d2067          	0x4f2d2067
  2c:	2031                	0x2031
  2e:	732d                	lui	t1,0xfffeb
  30:	6474                	ld	a3,200(s0)
  32:	633d                	lui	t1,0xf
  34:	3131                	addiw	sp,sp,-20
  36:	2d20                	fld	fs0,88(a0)
  38:	6e66                	ld	t3,88(sp)
  3a:	77642d6f          	jal	s10,427b0 <__global_pointer$+0x30e64>
  3e:	7261                	lui	tp,0xffff8
  40:	3266                	fld	ft4,120(sp)
  42:	632d                	lui	t1,0xb
  44:	6966                	ld	s2,88(sp)
  46:	612d                	addi	sp,sp,224
  48:	2d206d73          	csrrsi	s10,0x2d2,0
  4c:	6666                	ld	a2,88(sp)
  4e:	6572                	ld	a0,280(sp)
  50:	7365                	lui	t1,0xffff9
  52:	6174                	ld	a3,192(a0)
  54:	646e                	ld	s0,216(sp)
  56:	6e69                	lui	t3,0x1a
  58:	75660067          	jr	1878(a2)
  5c:	636e                	ld	t1,216(sp)
  5e:	6974                	ld	a3,208(a0)
  60:	635f6e6f          	jal	t3,f6e94 <__global_pointer$+0xe5548>
  64:	6c61                	lui	s8,0x18
  66:	5f6c                	lw	a1,124(a4)
  68:	2e31                	addiw	t3,t3,12
  6a:	682f0063          	beq	t5,sp,6ea <f-0xfa22>
  6e:	2f656d6f          	jal	s10,56364 <__global_pointer$+0x44a18>
  72:	6b616873          	csrrsi	a6,0x6b6,2
  76:	6465                	lui	s0,0x19
  78:	6d65722f          	0x6d65722f
  7c:	696c2f73          	csrrs	t5,0x696,s8
  80:	6d74                	ld	a3,216(a0)
  82:	7375                	lui	t1,0xffffd
  84:	742d                	lui	s0,0xfffeb
  86:	7365                	lui	t1,0xffff9
  88:	7374                	ld	a3,224(a4)
  8a:	722d                	lui	tp,0xfffeb
  8c:	7369                	lui	t1,0xffffa
  8e:	652f7663          	bleu	s2,t5,6da <f-0xfa32>
  92:	666c                	ld	a1,200(a2)
  94:	742d                	lui	s0,0xfffeb
  96:	7365                	lui	t1,0xffff9
  98:	7374                	ld	a3,224(a4)
  9a:	7361622f          	0x7361622f
  9e:	6369                	lui	t1,0x1a
  a0:	6d00                	ld	s0,24(a0)
  a2:	6961                	lui	s2,0x18
  a4:	006e                	c.slli	zero,0x1b

Disassembly of section .debug_loc:

0000000000000000 <.debug_loc>:
	...
   8:	000c                	0xc
   a:	0000                	unimp
   c:	0000                	unimp
   e:	0000                	unimp
  10:	0001                	nop
  12:	0c5a                	slli	s8,s8,0x16
  14:	0000                	unimp
  16:	0000                	unimp
  18:	0000                	unimp
  1a:	1800                	addi	s0,sp,48
  1c:	0000                	unimp
  1e:	0000                	unimp
  20:	0000                	unimp
  22:	0400                	addi	s0,sp,512
  24:	f300                	sd	s0,32(a4)
  26:	5a01                	li	s4,-32
  28:	009f 0000 0000      	0x9f
	...
  3e:	0000                	unimp
  40:	0c00                	addi	s0,sp,528
  42:	0000                	unimp
  44:	0000                	unimp
  46:	0000                	unimp
  48:	0100                	addi	s0,sp,128
  4a:	5a00                	lw	s0,48(a2)
  4c:	000c                	0xc
  4e:	0000                	unimp
  50:	0000                	unimp
  52:	0000                	unimp
  54:	0018                	0x18
  56:	0000                	unimp
  58:	0000                	unimp
  5a:	0000                	unimp
  5c:	0004                	0x4
  5e:	9f5a01f3          	0x9f5a01f3
	...
