
build/thread_start_test:     file format elf64-littleriscv


Disassembly of section .text:

000000000001010c <thread_start>:
   1010c:	fe010113          	addi	sp,sp,-32
   10110:	00813c23          	sd	s0,24(sp)
   10114:	02010413          	addi	s0,sp,32
   10118:	fea43423          	sd	a0,-24(s0)
   1011c:	fe843783          	ld	a5,-24(s0)
   10120:	00078513          	mv	a0,a5
   10124:	c0de000b          	0xc0de000b
   10128:	00050793          	mv	a5,a0
   1012c:	0007879b          	sext.w	a5,a5
   10130:	00078513          	mv	a0,a5
   10134:	01813403          	ld	s0,24(sp)
   10138:	02010113          	addi	sp,sp,32
   1013c:	00008067          	ret

0000000000010140 <f>:
   10140:	fe010113          	addi	sp,sp,-32
   10144:	00813c23          	sd	s0,24(sp)
   10148:	02010413          	addi	s0,sp,32
   1014c:	00050793          	mv	a5,a0
   10150:	fef42623          	sw	a5,-20(s0)
   10154:	000117b7          	lui	a5,0x11
   10158:	fec42703          	lw	a4,-20(s0)
   1015c:	1ae7a823          	sw	a4,432(a5) # 111b0 <new_tid>
   10160:	00000013          	nop
   10164:	01813403          	ld	s0,24(sp)
   10168:	02010113          	addi	sp,sp,32
   1016c:	00008067          	ret

0000000000010170 <main>:
   10170:	ff010113          	addi	sp,sp,-16
   10174:	00113423          	sd	ra,8(sp)
   10178:	00813023          	sd	s0,0(sp)
   1017c:	01010413          	addi	s0,sp,16
   10180:	000107b7          	lui	a5,0x10
   10184:	14078513          	addi	a0,a5,320 # 10140 <f>
   10188:	f85ff0ef          	jal	ra,1010c <thread_start>
   1018c:	000107b7          	lui	a5,0x10
   10190:	14078513          	addi	a0,a5,320 # 10140 <f>
   10194:	f79ff0ef          	jal	ra,1010c <thread_start>
   10198:	00100793          	li	a5,1
   1019c:	00078513          	mv	a0,a5
   101a0:	00813083          	ld	ra,8(sp)
   101a4:	00013403          	ld	s0,0(sp)
   101a8:	01010113          	addi	sp,sp,16
   101ac:	00008067          	ret
